(lp0
(dp1
S'real'
p2
S'192.168.107.1'
p3
sS'cn'
p4
S'a40'
p5
sS'virt'
p6
S'10.8.0.10'
p7
sS'since'
p8
S'Thu Feb  9 08:54:23 2023'
p9
sS'recv'
p10
I1344856
sS'sent'
p11
I40878455
sa(dp12
S'real'
p13
S'192.168.107.1'
p14
sS'cn'
p15
S'a40'
p16
sS'virt'
p17
S'10.8.0.10'
p18
sS'since'
p19
S'Thu Feb  9 08:54:23 2023'
p20
sS'recv'
p21
I2781139
sS'sent'
p22
I71868567
sa.