(lp0
(dp1
S'real'
p2
S'192.168.107.1'
p3
sS'cn'
p4
S'x1'
p5
sS'virt'
p6
S'10.8.0.18'
p7
sS'since'
p8
S'Thu Feb  9 09:19:35 2023'
p9
sS'recv'
p10
I6076
sS'sent'
p11
I6326
sa(dp12
S'real'
p13
S'192.168.107.1'
p14
sS'cn'
p15
S'x1'
p16
sS'virt'
p17
S'10.8.0.18'
p18
sS'since'
p19
S'Thu Feb  9 09:19:35 2023'
p20
sS'recv'
p21
I6392
sS'sent'
p22
I7334
sa.